; ModuleID = '57/2924.c'
source_filename = "57/2924.c"
target datalayout = "e-m:e-p270:32:32-p271:32:32-p272:64:64-i64:64-f80:128-n8:16:32:64-S128"
target triple = "x86_64-pc-linux-gnu"

@.str = private unnamed_addr constant [3 x i8] c"%d\00", align 1
@.str.1 = private unnamed_addr constant [3 x i8] c"%s\00", align 1
@.str.2 = private unnamed_addr constant [4 x i8] c"ing\00", align 1
@.str.3 = private unnamed_addr constant [3 x i8] c"er\00", align 1
@.str.4 = private unnamed_addr constant [3 x i8] c"ly\00", align 1
@.str.5 = private unnamed_addr constant [4 x i8] c"%s\0A\00", align 1

; Function Attrs: noinline nounwind uwtable
define dso_local i32 @main() #0 {
  %1 = alloca i32, align 4
  %2 = alloca i32, align 4
  %3 = alloca i32, align 4
  %4 = alloca [60 x [40 x i8]], align 16
  %5 = alloca i32, align 4
  %6 = alloca i32, align 4
  %7 = alloca i32, align 4
  store i32 0, i32* %1, align 4
  %8 = call i32 (i8*, ...) @__isoc99_scanf(i8* getelementptr inbounds ([3 x i8], [3 x i8]* @.str, i64 0, i64 0), i32* %2)
  store i32 0, i32* %5, align 4
  br label %9

9:                                                ; preds = %19, %0
  %10 = load i32, i32* %5, align 4
  %11 = load i32, i32* %2, align 4
  %12 = icmp slt i32 %10, %11
  br i1 %12, label %13, label %22

13:                                               ; preds = %9
  %14 = load i32, i32* %5, align 4
  %15 = sext i32 %14 to i64
  %16 = getelementptr inbounds [60 x [40 x i8]], [60 x [40 x i8]]* %4, i64 0, i64 %15
  %17 = getelementptr inbounds [40 x i8], [40 x i8]* %16, i64 0, i64 0
  %18 = call i32 (i8*, ...) @__isoc99_scanf(i8* getelementptr inbounds ([3 x i8], [3 x i8]* @.str.1, i64 0, i64 0), i8* %17)
  br label %19

19:                                               ; preds = %13
  %20 = load i32, i32* %5, align 4
  %21 = add nsw i32 %20, 1
  store i32 %21, i32* %5, align 4
  br label %9

22:                                               ; preds = %9
  store i32 0, i32* %6, align 4
  br label %23

23:                                               ; preds = %81, %22
  %24 = load i32, i32* %6, align 4
  %25 = load i32, i32* %2, align 4
  %26 = icmp slt i32 %24, %25
  br i1 %26, label %27, label %84

27:                                               ; preds = %23
  %28 = load i32, i32* %6, align 4
  %29 = sext i32 %28 to i64
  %30 = getelementptr inbounds [60 x [40 x i8]], [60 x [40 x i8]]* %4, i64 0, i64 %29
  %31 = getelementptr inbounds [40 x i8], [40 x i8]* %30, i64 0, i64 0
  %32 = call i64 @strlen(i8* %31) #3
  %33 = trunc i64 %32 to i32
  store i32 %33, i32* %3, align 4
  %34 = load i32, i32* %6, align 4
  %35 = sext i32 %34 to i64
  %36 = getelementptr inbounds [60 x [40 x i8]], [60 x [40 x i8]]* %4, i64 0, i64 %35
  %37 = load i32, i32* %3, align 4
  %38 = sub nsw i32 %37, 3
  %39 = sext i32 %38 to i64
  %40 = getelementptr inbounds [40 x i8], [40 x i8]* %36, i64 0, i64 %39
  %41 = call i32 @strcmp(i8* %40, i8* getelementptr inbounds ([4 x i8], [4 x i8]* @.str.2, i64 0, i64 0)) #3
  %42 = icmp eq i32 %41, 0
  br i1 %42, label %43, label %51

43:                                               ; preds = %27
  %44 = load i32, i32* %6, align 4
  %45 = sext i32 %44 to i64
  %46 = getelementptr inbounds [60 x [40 x i8]], [60 x [40 x i8]]* %4, i64 0, i64 %45
  %47 = load i32, i32* %3, align 4
  %48 = sub nsw i32 %47, 3
  %49 = sext i32 %48 to i64
  %50 = getelementptr inbounds [40 x i8], [40 x i8]* %46, i64 0, i64 %49
  store i8 0, i8* %50, align 1
  br label %80

51:                                               ; preds = %27
  %52 = load i32, i32* %6, align 4
  %53 = sext i32 %52 to i64
  %54 = getelementptr inbounds [60 x [40 x i8]], [60 x [40 x i8]]* %4, i64 0, i64 %53
  %55 = load i32, i32* %3, align 4
  %56 = sub nsw i32 %55, 2
  %57 = sext i32 %56 to i64
  %58 = getelementptr inbounds [40 x i8], [40 x i8]* %54, i64 0, i64 %57
  %59 = call i32 @strcmp(i8* %58, i8* getelementptr inbounds ([3 x i8], [3 x i8]* @.str.3, i64 0, i64 0)) #3
  %60 = icmp eq i32 %59, 0
  br i1 %60, label %71, label %61

61:                                               ; preds = %51
  %62 = load i32, i32* %6, align 4
  %63 = sext i32 %62 to i64
  %64 = getelementptr inbounds [60 x [40 x i8]], [60 x [40 x i8]]* %4, i64 0, i64 %63
  %65 = load i32, i32* %3, align 4
  %66 = sub nsw i32 %65, 2
  %67 = sext i32 %66 to i64
  %68 = getelementptr inbounds [40 x i8], [40 x i8]* %64, i64 0, i64 %67
  %69 = call i32 @strcmp(i8* %68, i8* getelementptr inbounds ([3 x i8], [3 x i8]* @.str.4, i64 0, i64 0)) #3
  %70 = icmp eq i32 %69, 0
  br i1 %70, label %71, label %79

71:                                               ; preds = %61, %51
  %72 = load i32, i32* %6, align 4
  %73 = sext i32 %72 to i64
  %74 = getelementptr inbounds [60 x [40 x i8]], [60 x [40 x i8]]* %4, i64 0, i64 %73
  %75 = load i32, i32* %3, align 4
  %76 = sub nsw i32 %75, 2
  %77 = sext i32 %76 to i64
  %78 = getelementptr inbounds [40 x i8], [40 x i8]* %74, i64 0, i64 %77
  store i8 0, i8* %78, align 1
  br label %79

79:                                               ; preds = %71, %61
  br label %80

80:                                               ; preds = %79, %43
  br label %81

81:                                               ; preds = %80
  %82 = load i32, i32* %6, align 4
  %83 = add nsw i32 %82, 1
  store i32 %83, i32* %6, align 4
  br label %23

84:                                               ; preds = %23
  store i32 0, i32* %7, align 4
  br label %85

85:                                               ; preds = %95, %84
  %86 = load i32, i32* %7, align 4
  %87 = load i32, i32* %2, align 4
  %88 = icmp slt i32 %86, %87
  br i1 %88, label %89, label %98

89:                                               ; preds = %85
  %90 = load i32, i32* %7, align 4
  %91 = sext i32 %90 to i64
  %92 = getelementptr inbounds [60 x [40 x i8]], [60 x [40 x i8]]* %4, i64 0, i64 %91
  %93 = getelementptr inbounds [40 x i8], [40 x i8]* %92, i64 0, i64 0
  %94 = call i32 (i8*, ...) @printf(i8* getelementptr inbounds ([4 x i8], [4 x i8]* @.str.5, i64 0, i64 0), i8* %93)
  br label %95

95:                                               ; preds = %89
  %96 = load i32, i32* %7, align 4
  %97 = add nsw i32 %96, 1
  store i32 %97, i32* %7, align 4
  br label %85

98:                                               ; preds = %85
  ret i32 0
}

declare dso_local i32 @__isoc99_scanf(i8*, ...) #1

; Function Attrs: nounwind readonly
declare dso_local i64 @strlen(i8*) #2

; Function Attrs: nounwind readonly
declare dso_local i32 @strcmp(i8*, i8*) #2

declare dso_local i32 @printf(i8*, ...) #1


!llvm.module.flags = !{!0}
!llvm.ident = !{!1}

!0 = !{i32 1, !"wchar_size", i32 4}
!1 = !{!"clang version 10.0.0-4ubuntu1 "}
